; ModuleID = '30/103.c'
source_filename = "30/103.c"
target datalayout = "e-m:e-p270:32:32-p271:32:32-p272:64:64-i64:64-f80:128-n8:16:32:64-S128"
target triple = "x86_64-pc-linux-gnu"

@.str = private unnamed_addr constant [3 x i8] c"%d\00", align 1
@.str.1 = private unnamed_addr constant [4 x i8] c"%d\0A\00", align 1

; Function Attrs: noinline nounwind uwtable
define dso_local i32 @main() #0 {
  %1 = alloca i32, align 4
  %2 = alloca i32, align 4
  %3 = alloca i32, align 4
  %4 = alloca i32, align 4
  %5 = alloca i32, align 4
  %6 = alloca i32, align 4
  %7 = alloca i32, align 4
  store i32 0, i32* %1, align 4
  store i32 0, i32* %7, align 4
  %8 = call i32 (i8*, ...) @__isoc99_scanf(i8* getelementptr inbounds ([3 x i8], [3 x i8]* @.str, i64 0, i64 0), i32* %6)
  store i32 1, i32* %2, align 4
  br label %9

9:                                                ; preds = %47, %0
  %10 = load i32, i32* %2, align 4
  %11 = load i32, i32* %6, align 4
  %12 = icmp sle i32 %10, %11
  br i1 %12, label %13, label %50

13:                                               ; preds = %9
  %14 = load i32, i32* %2, align 4
  %15 = sdiv i32 %14, 100
  store i32 %15, i32* %3, align 4
  %16 = load i32, i32* %2, align 4
  %17 = load i32, i32* %3, align 4
  %18 = mul nsw i32 %17, 100
  %19 = sub nsw i32 %16, %18
  %20 = sdiv i32 %19, 10
  store i32 %20, i32* %4, align 4
  %21 = load i32, i32* %2, align 4
  %22 = load i32, i32* %3, align 4
  %23 = mul nsw i32 100, %22
  %24 = sub nsw i32 %21, %23
  %25 = load i32, i32* %4, align 4
  %26 = mul nsw i32 10, %25
  %27 = sub nsw i32 %24, %26
  store i32 %27, i32* %5, align 4
  %28 = load i32, i32* %2, align 4
  %29 = srem i32 %28, 7
  %30 = icmp ne i32 %29, 0
  br i1 %30, label %31, label %46

31:                                               ; preds = %13
  %32 = load i32, i32* %3, align 4
  %33 = icmp ne i32 %32, 7
  br i1 %33, label %34, label %46

34:                                               ; preds = %31
  %35 = load i32, i32* %4, align 4
  %36 = icmp ne i32 %35, 7
  br i1 %36, label %37, label %46

37:                                               ; preds = %34
  %38 = load i32, i32* %5, align 4
  %39 = icmp ne i32 %38, 7
  br i1 %39, label %40, label %46

40:                                               ; preds = %37
  %41 = load i32, i32* %7, align 4
  %42 = load i32, i32* %2, align 4
  %43 = load i32, i32* %2, align 4
  %44 = mul nsw i32 %42, %43
  %45 = add nsw i32 %41, %44
  store i32 %45, i32* %7, align 4
  br label %46

46:                                               ; preds = %40, %37, %34, %31, %13
  br label %47

47:                                               ; preds = %46
  %48 = load i32, i32* %2, align 4
  %49 = add nsw i32 %48, 1
  store i32 %49, i32* %2, align 4
  br label %9

50:                                               ; preds = %9
  %51 = load i32, i32* %7, align 4
  %52 = call i32 (i8*, ...) @printf(i8* getelementptr inbounds ([4 x i8], [4 x i8]* @.str.1, i64 0, i64 0), i32 %51)
  ret i32 0
}

declare dso_local i32 @__isoc99_scanf(i8*, ...) #1

declare dso_local i32 @printf(i8*, ...) #1


!llvm.module.flags = !{!0}
!llvm.ident = !{!1}

!0 = !{i32 1, !"wchar_size", i32 4}
!1 = !{!"clang version 10.0.0-4ubuntu1 "}
